; ModuleID = 'source-C-CXX/42/1499.cpp'
source_filename = "source-C-CXX/42/1499.cpp"
target datalayout = "e-m:e-p270:32:32-p271:32:32-p272:64:64-i64:64-f80:128-n8:16:32:64-S128"
target triple = "x86_64-pc-linux-gnu"

%"class.std::ios_base::Init" = type { i8 }
%"class.std::basic_istream" = type { i32 (...)**, i64, %"class.std::basic_ios" }
%"class.std::basic_ios" = type { %"class.std::ios_base", %"class.std::basic_ostream"*, i8, i8, %"class.std::basic_streambuf"*, %"class.std::ctype"*, %"class.std::num_put"*, %"class.std::num_get"* }
%"class.std::ios_base" = type { i32 (...)**, i64, i64, i32, i32, i32, %"struct.std::ios_base::_Callback_list"*, %"struct.std::ios_base::_Words", [8 x %"struct.std::ios_base::_Words"], i32, %"struct.std::ios_base::_Words"*, %"class.std::locale" }
%"struct.std::ios_base::_Callback_list" = type { %"struct.std::ios_base::_Callback_list"*, void (i32, %"class.std::ios_base"*, i32)*, i32, i32 }
%"struct.std::ios_base::_Words" = type { i8*, i64 }
%"class.std::locale" = type { %"class.std::locale::_Impl"* }
%"class.std::locale::_Impl" = type { i32, %"class.std::locale::facet"**, i64, %"class.std::locale::facet"**, i8** }
%"class.std::locale::facet" = type <{ i32 (...)**, i32, [4 x i8] }>
%"class.std::basic_ostream" = type { i32 (...)**, %"class.std::basic_ios" }
%"class.std::basic_streambuf" = type { i32 (...)**, i8*, i8*, i8*, i8*, i8*, i8*, %"class.std::locale" }
%"class.std::ctype" = type <{ %"class.std::locale::facet.base", [4 x i8], %struct.__locale_struct*, i8, [7 x i8], i32*, i32*, i16*, i8, [256 x i8], [256 x i8], i8, [6 x i8] }>
%"class.std::locale::facet.base" = type <{ i32 (...)**, i32 }>
%struct.__locale_struct = type { [13 x %struct.__locale_data*], i16*, i32*, i32*, [13 x i8*] }
%struct.__locale_data = type opaque
%"class.std::num_put" = type { %"class.std::locale::facet.base", [4 x i8] }
%"class.std::num_get" = type { %"class.std::locale::facet.base", [4 x i8] }

@_ZStL8__ioinit = internal global %"class.std::ios_base::Init" zeroinitializer, align 1
@__dso_handle = external hidden global i8
@_ZSt3cin = external global %"class.std::basic_istream", align 8
@_ZSt4cout = external global %"class.std::basic_ostream", align 8
@.str = private unnamed_addr constant [2 x i8] c" \00", align 1
@llvm.global_ctors = appending global [1 x { i32, void ()*, i8* }] [{ i32, void ()*, i8* } { i32 65535, void ()* @_GLOBAL__sub_I_1499.cpp, i8* null }]

declare void @_ZNSt8ios_base4InitC1Ev(%"class.std::ios_base::Init"* nonnull align 1 dereferenceable(1)) unnamed_addr #0

; Function Attrs: nounwind
declare void @_ZNSt8ios_base4InitD1Ev(%"class.std::ios_base::Init"* nonnull align 1 dereferenceable(1)) unnamed_addr #1

; Function Attrs: nofree nounwind
declare i32 @__cxa_atexit(void (i8*)*, i8*, i8*) local_unnamed_addr #2

; Function Attrs: mustprogress norecurse sspstrong uwtable
define dso_local i32 @main() local_unnamed_addr #3 {
  %1 = alloca i32, align 4
  %2 = bitcast i32* %1 to i8*
  call void @llvm.lifetime.start.p0i8(i64 4, i8* nonnull %2) #10
  %3 = call nonnull align 8 dereferenceable(16) %"class.std::basic_istream"* @_ZNSirsERi(%"class.std::basic_istream"* nonnull align 8 dereferenceable(16) @_ZSt3cin, i32* nonnull align 4 dereferenceable(4) %1)
  %4 = load i32, i32* %1, align 4, !tbaa !5
  %5 = icmp slt i32 %4, 4
  br i1 %5, label %6, label %7

6:                                                ; preds = %81, %0
  call void @llvm.lifetime.end.p0i8(i64 4, i8* nonnull %2) #10
  ret i32 0

7:                                                ; preds = %0, %81
  %8 = phi i32 [ %82, %81 ], [ 2, %0 ]
  %9 = sitofp i32 %8 to double
  %10 = call double @sqrt(double %9) #10
  %11 = fcmp ult double %10, 2.000000e+00
  br i1 %11, label %21, label %12

12:                                               ; preds = %7, %16
  %13 = phi i32 [ %17, %16 ], [ 2, %7 ]
  %14 = urem i32 %8, %13
  %15 = icmp eq i32 %14, 0
  br i1 %15, label %81, label %16

16:                                               ; preds = %12
  %17 = add nuw nsw i32 %13, 1
  %18 = sitofp i32 %17 to double
  %19 = call double @sqrt(double %9) #10
  %20 = fcmp ult double %19, %18
  br i1 %20, label %21, label %12, !llvm.loop !9

21:                                               ; preds = %16, %7
  %22 = phi i32 [ 2, %7 ], [ %17, %16 ]
  %23 = call double @sqrt(double %9) #10
  %24 = fptosi double %23 to i32
  %25 = add nsw i32 %24, 1
  %26 = icmp eq i32 %22, %25
  call void @llvm.assume(i1 %26) #10
  %27 = load i32, i32* %1, align 4, !tbaa !5
  %28 = sub nsw i32 %27, %8
  %29 = sitofp i32 %28 to double
  %30 = call double @sqrt(double %29) #10
  %31 = fcmp ult double %30, 2.000000e+00
  br i1 %31, label %41, label %32

32:                                               ; preds = %21, %36
  %33 = phi i32 [ %37, %36 ], [ 2, %21 ]
  %34 = srem i32 %28, %33
  %35 = icmp eq i32 %34, 0
  br i1 %35, label %81, label %36

36:                                               ; preds = %32
  %37 = add nuw nsw i32 %33, 1
  %38 = sitofp i32 %37 to double
  %39 = call double @sqrt(double %29) #10
  %40 = fcmp ult double %39, %38
  br i1 %40, label %41, label %32, !llvm.loop !9

41:                                               ; preds = %36, %21
  %42 = phi i32 [ 2, %21 ], [ %37, %36 ]
  %43 = call double @sqrt(double %29) #10
  %44 = fptosi double %43 to i32
  %45 = add nsw i32 %44, 1
  %46 = icmp eq i32 %42, %45
  call void @llvm.assume(i1 %46) #10
  %47 = call nonnull align 8 dereferenceable(8) %"class.std::basic_ostream"* @_ZNSolsEi(%"class.std::basic_ostream"* nonnull align 8 dereferenceable(8) @_ZSt4cout, i32 %8)
  %48 = call nonnull align 8 dereferenceable(8) %"class.std::basic_ostream"* @_ZSt16__ostream_insertIcSt11char_traitsIcEERSt13basic_ostreamIT_T0_ES6_PKS3_l(%"class.std::basic_ostream"* nonnull align 8 dereferenceable(8) %47, i8* nonnull getelementptr inbounds ([2 x i8], [2 x i8]* @.str, i64 0, i64 0), i64 1)
  %49 = load i32, i32* %1, align 4, !tbaa !5
  %50 = sub nsw i32 %49, %8
  %51 = call nonnull align 8 dereferenceable(8) %"class.std::basic_ostream"* @_ZNSolsEi(%"class.std::basic_ostream"* nonnull align 8 dereferenceable(8) %47, i32 %50)
  %52 = bitcast %"class.std::basic_ostream"* %51 to i8**
  %53 = load i8*, i8** %52, align 8, !tbaa !11
  %54 = getelementptr i8, i8* %53, i64 -24
  %55 = bitcast i8* %54 to i64*
  %56 = load i64, i64* %55, align 8
  %57 = bitcast %"class.std::basic_ostream"* %51 to i8*
  %58 = add nsw i64 %56, 240
  %59 = getelementptr inbounds i8, i8* %57, i64 %58
  %60 = bitcast i8* %59 to %"class.std::ctype"**
  %61 = load %"class.std::ctype"*, %"class.std::ctype"** %60, align 8, !tbaa !13
  %62 = icmp eq %"class.std::ctype"* %61, null
  br i1 %62, label %63, label %64

63:                                               ; preds = %41
  call void @_ZSt16__throw_bad_castv() #11
  unreachable

64:                                               ; preds = %41
  %65 = getelementptr inbounds %"class.std::ctype", %"class.std::ctype"* %61, i64 0, i32 8
  %66 = load i8, i8* %65, align 8, !tbaa !17
  %67 = icmp eq i8 %66, 0
  br i1 %67, label %71, label %68

68:                                               ; preds = %64
  %69 = getelementptr inbounds %"class.std::ctype", %"class.std::ctype"* %61, i64 0, i32 9, i64 10
  %70 = load i8, i8* %69, align 1, !tbaa !19
  br label %77

71:                                               ; preds = %64
  call void @_ZNKSt5ctypeIcE13_M_widen_initEv(%"class.std::ctype"* nonnull align 8 dereferenceable(570) %61)
  %72 = bitcast %"class.std::ctype"* %61 to i8 (%"class.std::ctype"*, i8)***
  %73 = load i8 (%"class.std::ctype"*, i8)**, i8 (%"class.std::ctype"*, i8)*** %72, align 8, !tbaa !11
  %74 = getelementptr inbounds i8 (%"class.std::ctype"*, i8)*, i8 (%"class.std::ctype"*, i8)** %73, i64 6
  %75 = load i8 (%"class.std::ctype"*, i8)*, i8 (%"class.std::ctype"*, i8)** %74, align 8
  %76 = call signext i8 %75(%"class.std::ctype"* nonnull align 8 dereferenceable(570) %61, i8 signext 10)
  br label %77

77:                                               ; preds = %68, %71
  %78 = phi i8 [ %70, %68 ], [ %76, %71 ]
  %79 = call nonnull align 8 dereferenceable(8) %"class.std::basic_ostream"* @_ZNSo3putEc(%"class.std::basic_ostream"* nonnull align 8 dereferenceable(8) %51, i8 signext %78)
  %80 = call nonnull align 8 dereferenceable(8) %"class.std::basic_ostream"* @_ZNSo5flushEv(%"class.std::basic_ostream"* nonnull align 8 dereferenceable(8) %79)
  br label %81

81:                                               ; preds = %12, %32, %77
  %82 = add nuw nsw i32 %8, 1
  %83 = load i32, i32* %1, align 4, !tbaa !5
  %84 = sdiv i32 %83, 2
  %85 = icmp slt i32 %8, %84
  br i1 %85, label %7, label %6, !llvm.loop !20
}

; Function Attrs: argmemonly mustprogress nofree nosync nounwind willreturn
declare void @llvm.lifetime.start.p0i8(i64 immarg, i8* nocapture) #4

declare nonnull align 8 dereferenceable(16) %"class.std::basic_istream"* @_ZNSirsERi(%"class.std::basic_istream"* nonnull align 8 dereferenceable(16), i32* nonnull align 4 dereferenceable(4)) local_unnamed_addr #0

; Function Attrs: mustprogress nofree nounwind sspstrong uwtable
define dso_local i32 @_Z5sushui(i32 %0) local_unnamed_addr #5 {
  %2 = sitofp i32 %0 to double
  %3 = tail call double @sqrt(double %2) #10
  %4 = fcmp ult double %3, 2.000000e+00
  br i1 %4, label %14, label %5

5:                                                ; preds = %1, %9
  %6 = phi i32 [ %10, %9 ], [ 2, %1 ]
  %7 = srem i32 %0, %6
  %8 = icmp eq i32 %7, 0
  br i1 %8, label %20, label %9

9:                                                ; preds = %5
  %10 = add nuw nsw i32 %6, 1
  %11 = sitofp i32 %10 to double
  %12 = tail call double @sqrt(double %2) #10
  %13 = fcmp ult double %12, %11
  br i1 %13, label %14, label %5, !llvm.loop !9

14:                                               ; preds = %9, %1
  %15 = phi i32 [ 2, %1 ], [ %10, %9 ]
  %16 = tail call double @sqrt(double %2) #10
  %17 = fptosi double %16 to i32
  %18 = add nsw i32 %17, 1
  %19 = icmp eq i32 %15, %18
  tail call void @llvm.assume(i1 %19)
  br label %20

20:                                               ; preds = %5, %14
  %21 = phi i32 [ 1, %14 ], [ 0, %5 ]
  ret i32 %21
}

declare nonnull align 8 dereferenceable(8) %"class.std::basic_ostream"* @_ZNSolsEi(%"class.std::basic_ostream"* nonnull align 8 dereferenceable(8), i32) local_unnamed_addr #0

; Function Attrs: argmemonly mustprogress nofree nosync nounwind willreturn
declare void @llvm.lifetime.end.p0i8(i64 immarg, i8* nocapture) #4

; Function Attrs: mustprogress nofree nounwind willreturn
declare double @sqrt(double) local_unnamed_addr #6

declare nonnull align 8 dereferenceable(8) %"class.std::basic_ostream"* @_ZSt16__ostream_insertIcSt11char_traitsIcEERSt13basic_ostreamIT_T0_ES6_PKS3_l(%"class.std::basic_ostream"* nonnull align 8 dereferenceable(8), i8*, i64) local_unnamed_addr #0

declare nonnull align 8 dereferenceable(8) %"class.std::basic_ostream"* @_ZNSo3putEc(%"class.std::basic_ostream"* nonnull align 8 dereferenceable(8), i8 signext) local_unnamed_addr #0

declare nonnull align 8 dereferenceable(8) %"class.std::basic_ostream"* @_ZNSo5flushEv(%"class.std::basic_ostream"* nonnull align 8 dereferenceable(8)) local_unnamed_addr #0

; Function Attrs: noreturn
declare void @_ZSt16__throw_bad_castv() local_unnamed_addr #7

declare void @_ZNKSt5ctypeIcE13_M_widen_initEv(%"class.std::ctype"* nonnull align 8 dereferenceable(570)) local_unnamed_addr #0

; Function Attrs: sspstrong uwtable
define internal void @_GLOBAL__sub_I_1499.cpp() #8 section ".text.startup" {
  tail call void @_ZNSt8ios_base4InitC1Ev(%"class.std::ios_base::Init"* nonnull align 1 dereferenceable(1) @_ZStL8__ioinit)
  %1 = tail call i32 @__cxa_atexit(void (i8*)* bitcast (void (%"class.std::ios_base::Init"*)* @_ZNSt8ios_base4InitD1Ev to void (i8*)*), i8* getelementptr inbounds (%"class.std::ios_base::Init", %"class.std::ios_base::Init"* @_ZStL8__ioinit, i64 0, i32 0), i8* nonnull @__dso_handle) #10
  ret void
}

; Function Attrs: inaccessiblememonly nofree nosync nounwind willreturn
declare void @llvm.assume(i1 noundef) #9


!llvm.module.flags = !{!0, !1, !2, !3}
!llvm.ident = !{!4}

!0 = !{i32 1, !"wchar_size", i32 4}
!1 = !{i32 7, !"PIC Level", i32 2}
!2 = !{i32 7, !"PIE Level", i32 2}
!3 = !{i32 7, !"uwtable", i32 1}
!4 = !{!"clang version 13.0.0"}
!5 = !{!6, !6, i64 0}
!6 = !{!"int", !7, i64 0}
!7 = !{!"omnipotent char", !8, i64 0}
!8 = !{!"Simple C++ TBAA"}
!9 = distinct !{!9, !10}
!10 = !{!"llvm.loop.mustprogress"}
!11 = !{!12, !12, i64 0}
!12 = !{!"vtable pointer", !8, i64 0}
!13 = !{!14, !15, i64 240}
!14 = !{!"_ZTSSt9basic_iosIcSt11char_traitsIcEE", !15, i64 216, !7, i64 224, !16, i64 225, !15, i64 232, !15, i64 240, !15, i64 248, !15, i64 256}
!15 = !{!"any pointer", !7, i64 0}
!16 = !{!"bool", !7, i64 0}
!17 = !{!18, !7, i64 56}
!18 = !{!"_ZTSSt5ctypeIcE", !15, i64 16, !16, i64 24, !15, i64 32, !15, i64 40, !15, i64 48, !7, i64 56, !7, i64 57, !7, i64 313, !7, i64 569}
!19 = !{!7, !7, i64 0}
!20 = distinct !{!20, !10}
